; Function Attrs: nounwind uwtable
define void @PMIx_Coord_free(ptr noundef captures(address_is_null) %0, i64 noundef %1) local_unnamed_addr #6 {
  %.not.i = icmp eq ptr %0, null
  br i1 %.not.i, label %pmix_bfrops_base_tma_coord_free.exit, label %.preheader.i

.preheader.i:                                     ; preds = %2
  %.not2.i = icmp eq i64 %1, 0
  br i1 %.not2.i, label %._crit_edge.i, label %.lr.ph.i

._crit_edge.i:                                    ; preds = %pmix_bfrops_base_tma_coord_destruct.exit.i, %.preheader.i
  tail call void @free(ptr noundef nonnull %0) #44
  br label %pmix_bfrops_base_tma_coord_free.exit

.lr.ph.i:                                         ; preds = %.preheader.i, %pmix_bfrops_base_tma_coord_destruct.exit.i
  %.01.i = phi i64 [ %7, %pmix_bfrops_base_tma_coord_destruct.exit.i ], [ 0, %.preheader.i ]
  %3 = getelementptr inbounds nuw %struct.pmix_coord, ptr %0, i64 %.01.i
  store i8 0, ptr %3, align 8, !tbaa !31
  %4 = getelementptr inbounds nuw i8, ptr %3, i64 8
  %5 = load ptr, ptr %4, align 8, !tbaa !35
  %.not8.i.i = icmp eq ptr %5, null
  br i1 %.not8.i.i, label %pmix_bfrops_base_tma_coord_destruct.exit.i, label %6

6:                                                ; preds = %.lr.ph.i
  tail call void @free(ptr noundef nonnull %5) #44
  tail call void @llvm.memset.p0.i64(ptr noundef nonnull align 8 dereferenceable(16) %4, i8 0, i64 16, i1 false)
  br label %pmix_bfrops_base_tma_coord_destruct.exit.i

pmix_bfrops_base_tma_coord_destruct.exit.i:       ; preds = %6, %.lr.ph.i
  %7 = add nuw i64 %.01.i, 1
  %exitcond.not.i = icmp eq i64 %7, %1
  br i1 %exitcond.not.i, label %._crit_edge.i, label %.lr.ph.i, !llvm.loop !42

pmix_bfrops_base_tma_coord_free.exit:             ; preds = %2, %._crit_edge.i
  ret void
}